; Function Attrs: mustprogress nofree nounwind willreturn memory(readwrite, argmem: read) uwtable
define noalias noundef ptr @Abc_NtkIfifStart(ptr noundef %0, ptr noundef %1) local_unnamed_addr #0 {
  %3 = tail call noalias dereferenceable_or_null(32) ptr @calloc(i64 noundef 1, i64 noundef 32) #12
  store ptr %0, ptr %3, align 8, !tbaa !3
  %4 = getelementptr inbounds nuw i8, ptr %3, i64 8
  store ptr %1, ptr %4, align 8, !tbaa !12
  %5 = getelementptr i8, ptr %0, i64 32
  %.val = load ptr, ptr %5, align 8, !tbaa !13
  %6 = getelementptr i8, ptr %.val, i64 4
  %.val.val = load i32, ptr %6, align 4, !tbaa !29
  %7 = getelementptr inbounds nuw i8, ptr %3, i64 16
  store i32 %.val.val, ptr %7, align 8, !tbaa !31
  %8 = sext i32 %.val.val to i64
  %9 = tail call noalias ptr @calloc(i64 noundef %8, i64 noundef 28) #12
  %10 = getelementptr inbounds nuw i8, ptr %3, i64 24
  store ptr %9, ptr %10, align 8, !tbaa !32
  ret ptr %3
}